target datalayout = "e-m:e-p270:32:32-p271:32:32-p272:64:64-i64:64-i128:128-f80:128-n8:16:32:64-S128"
target triple = "x86_64-unknown-linux-gnu"

@.str.45 = private unnamed_addr constant [7 x i8] c"device\00", align 1
@.str.46 = private unnamed_addr constant [101 x i8] c"/home/dtcxzyw/WorkSpace/Projects/compilers/llvm-opt-benchmark/bench/qemu/qemu/include/hw/qdev-core.h\00", align 1
@__func__.DEVICE = private unnamed_addr constant [7 x i8] c"DEVICE\00", align 1

; Function Attrs: nounwind sspstrong uwtable
define internal ptr @DEVICE(ptr noundef %obj) #0 {
entry:
  %obj.addr = alloca ptr, align 8
  store ptr %obj, ptr %obj.addr, align 8
  %0 = load ptr, ptr %obj.addr, align 8
  %call = call ptr @object_dynamic_cast_assert(ptr noundef %0, ptr noundef @.str.45, ptr noundef @.str.46, i32 noundef 77, ptr noundef @__func__.DEVICE)
  ret ptr %call
}

; Function Attrs: nounwind sspstrong uwtable
define internal void @release_drive(ptr noundef %obj, ptr noundef %name, ptr noundef %opaque) #0 {
entry:
  %obj.addr = alloca ptr, align 8
  %name.addr = alloca ptr, align 8
  %opaque.addr = alloca ptr, align 8
  %dev = alloca ptr, align 8
  %prop = alloca ptr, align 8
  %ptr = alloca ptr, align 8
  %ctx = alloca ptr, align 8
  store ptr %obj, ptr %obj.addr, align 8
  store ptr %name, ptr %name.addr, align 8
  store ptr %opaque, ptr %opaque.addr, align 8
  %0 = load ptr, ptr %obj.addr, align 8
  %call = call ptr @DEVICE(ptr noundef %0)
  store ptr %call, ptr %dev, align 8
  %1 = load ptr, ptr %opaque.addr, align 8
  store ptr %1, ptr %prop, align 8
  %2 = load ptr, ptr %obj.addr, align 8
  %3 = load ptr, ptr %prop, align 8
  %call1 = call ptr @object_field_prop_ptr(ptr noundef %2, ptr noundef %3)
  store ptr %call1, ptr %ptr, align 8
  %4 = load ptr, ptr %ptr, align 8
  %5 = load ptr, ptr %4, align 8
  %tobool = icmp ne ptr %5, null
  br i1 %tobool, label %if.then, label %if.end

if.then:                                          ; preds = %entry
  %6 = load ptr, ptr %ptr, align 8
  %7 = load ptr, ptr %6, align 8
  %call2 = call ptr @blk_get_aio_context(ptr noundef %7)
  store ptr %call2, ptr %ctx, align 8
  %8 = load ptr, ptr %ctx, align 8
  call void @aio_context_acquire(ptr noundef %8)
  %9 = load ptr, ptr %ptr, align 8
  %10 = load ptr, ptr %9, align 8
  call void @blockdev_auto_del(ptr noundef %10)
  %11 = load ptr, ptr %ptr, align 8
  %12 = load ptr, ptr %11, align 8
  %13 = load ptr, ptr %dev, align 8
  call void @blk_detach_dev(ptr noundef %12, ptr noundef %13)
  %14 = load ptr, ptr %ctx, align 8
  call void @aio_context_release(ptr noundef %14)
  br label %if.end

if.end:                                           ; preds = %if.then, %entry
  ret void
}