; Function Attrs: nounwind sspstrong uwtable
define internal void @release_drive(ptr noundef %obj, ptr readnone captures(none) %name, ptr noundef %opaque) #0 {
entry:
  %call.i = tail call ptr @object_dynamic_cast_assert(ptr noundef %obj, ptr noundef nonnull @.str.45, ptr noundef nonnull @.str.46, i32 noundef 77, ptr noundef nonnull @__func__.DEVICE) #10
  %call1 = tail call ptr @object_field_prop_ptr(ptr noundef %obj, ptr noundef %opaque) #10
  %0 = load ptr, ptr %call1, align 8
  %tobool.not = icmp eq ptr %0, null
  br i1 %tobool.not, label %if.end, label %if.then

if.then:                                          ; preds = %entry
  %call2 = tail call ptr @blk_get_aio_context(ptr noundef nonnull %0) #10
  tail call void @aio_context_acquire(ptr noundef %call2) #10
  %1 = load ptr, ptr %call1, align 8
  tail call void @blockdev_auto_del(ptr noundef %1) #10
  %2 = load ptr, ptr %call1, align 8
  tail call void @blk_detach_dev(ptr noundef %2, ptr noundef %call.i) #10
  tail call void @aio_context_release(ptr noundef %call2) #10
  br label %if.end

if.end:                                           ; preds = %if.then, %entry
  ret void
}